; Function Attrs: mustprogress noinline noreturn uwtable
define dso_local void @_ZN4Luau10ParseError5raiseERKNS_8LocationEPKcz(ptr noundef nonnull readonly align 4 captures(none) dereferenceable(16) %0, ptr noundef %1, ...) local_unnamed_addr #7 align 2 personality ptr @__gxx_personality_v0 {
  %3 = alloca i64, align 8
  %4 = alloca [1 x %struct.__va_list_tag], align 16
  %5 = alloca %"class.std::__cxx11::basic_string", align 8
  call void @llvm.lifetime.start.p0(i64 24, ptr nonnull %4) #29
  call void @llvm.va_start.p0(ptr nonnull %4)
  call void @llvm.lifetime.start.p0(i64 32, ptr nonnull %5) #29
  call void @_ZN4Luau7vformatB5cxx11EPKcP13__va_list_tag(ptr dead_on_unwind nonnull writable sret(%"class.std::__cxx11::basic_string") align 8 %5, ptr noundef %1, ptr noundef nonnull %4)
  call void @llvm.va_end.p0(ptr nonnull %4)
  %6 = call ptr @__cxa_allocate_exception(i64 56) #29
  store ptr getelementptr inbounds nuw inrange(-16, 24) (i8, ptr @_ZTVN4Luau10ParseErrorE, i64 16), ptr %6, align 8, !tbaa !8
  %7 = getelementptr inbounds nuw i8, ptr %6, i64 8
  call void @llvm.memcpy.p0.p0.i64(ptr noundef nonnull align 8 dereferenceable(16) %7, ptr noundef nonnull readonly align 4 dereferenceable(16) %0, i64 16, i1 false), !tbaa.struct !10
  %8 = getelementptr inbounds nuw i8, ptr %6, i64 24
  %9 = getelementptr inbounds nuw i8, ptr %6, i64 40
  store ptr %9, ptr %8, align 8, !tbaa !11
  %10 = load ptr, ptr %5, align 8, !tbaa !15
  %11 = getelementptr inbounds nuw i8, ptr %5, i64 8
  %12 = load i64, ptr %11, align 8, !tbaa !18
  call void @llvm.lifetime.start.p0(i64 8, ptr nonnull %3) #29
  store i64 %12, ptr %3, align 8, !tbaa !19
  %13 = icmp ugt i64 %12, 15
  br i1 %13, label %.noexc.i.i, label %._crit_edge.i.i.i

.noexc.i.i:                                       ; preds = %2
  %14 = invoke noundef ptr @_ZNSt7__cxx1112basic_stringIcSt11char_traitsIcESaIcEE9_M_createERmm(ptr noundef nonnull align 8 dereferenceable(32) %8, ptr noundef nonnull align 8 dereferenceable(8) %3, i64 noundef 0)
          to label %.noexc.i unwind label %.body

.noexc.i:                                         ; preds = %.noexc.i.i
  store ptr %14, ptr %8, align 8, !tbaa !15
  %15 = load i64, ptr %3, align 8, !tbaa !19
  store i64 %15, ptr %9, align 8, !tbaa !20
  br label %._crit_edge.i.i.i

._crit_edge.i.i.i:                                ; preds = %.noexc.i, %2
  %16 = phi ptr [ %14, %.noexc.i ], [ %9, %2 ]
  switch i64 %12, label %19 [
    i64 1, label %17
    i64 0, label %21
  ]

17:                                               ; preds = %._crit_edge.i.i.i
  %18 = load i8, ptr %10, align 1, !tbaa !20
  store i8 %18, ptr %16, align 1, !tbaa !20
  br label %21

19:                                               ; preds = %._crit_edge.i.i.i
  call void @llvm.memcpy.p0.p0.i64(ptr align 1 %16, ptr align 1 %10, i64 %12, i1 false)
  br label %21

.body:                                            ; preds = %.noexc.i.i
  %20 = landingpad { ptr, i32 }
          cleanup
  call void @_ZNSt9exceptionD2Ev(ptr noundef nonnull align 8 dereferenceable(56) %6) #29
  call void @__cxa_free_exception(ptr nonnull %6) #29
  br label %28

21:                                               ; preds = %19, %17, %._crit_edge.i.i.i
  %22 = load i64, ptr %3, align 8, !tbaa !19
  %23 = getelementptr inbounds nuw i8, ptr %6, i64 32
  store i64 %22, ptr %23, align 8, !tbaa !18
  %24 = load ptr, ptr %8, align 8, !tbaa !15
  %25 = getelementptr inbounds nuw i8, ptr %24, i64 %22
  store i8 0, ptr %25, align 1, !tbaa !20
  call void @llvm.lifetime.end.p0(i64 8, ptr nonnull %3) #29
  invoke void @__cxa_throw(ptr nonnull %6, ptr nonnull @_ZTIN4Luau10ParseErrorE, ptr nonnull @_ZN4Luau10ParseErrorD2Ev) #30
          to label %36 unwind label %26

26:                                               ; preds = %21
  %27 = landingpad { ptr, i32 }
          cleanup
  br label %28

28:                                               ; preds = %26, %.body
  %.pn = phi { ptr, i32 } [ %27, %26 ], [ %20, %.body ]
  %29 = load ptr, ptr %5, align 8, !tbaa !15
  %30 = getelementptr inbounds nuw i8, ptr %5, i64 16
  %31 = icmp eq ptr %29, %30
  br i1 %31, label %_ZNKSt7__cxx1112basic_stringIcSt11char_traitsIcESaIcEE11_M_is_localEv.exit.thread.i.i, label %_ZNKSt7__cxx1112basic_stringIcSt11char_traitsIcESaIcEE11_M_is_localEv.exit.i.i

_ZNKSt7__cxx1112basic_stringIcSt11char_traitsIcESaIcEE11_M_is_localEv.exit.thread.i.i: ; preds = %28
  %32 = load i64, ptr %11, align 8, !tbaa !18
  %33 = icmp ult i64 %32, 16
  call void @llvm.assume(i1 %33)
  br label %_ZNSt7__cxx1112basic_stringIcSt11char_traitsIcESaIcEED2Ev.exit

_ZNKSt7__cxx1112basic_stringIcSt11char_traitsIcESaIcEE11_M_is_localEv.exit.i.i: ; preds = %28
  %34 = load i64, ptr %30, align 8, !tbaa !20
  %35 = add i64 %34, 1
  call void @_ZdlPvm(ptr noundef %29, i64 noundef %35) #31
  br label %_ZNSt7__cxx1112basic_stringIcSt11char_traitsIcESaIcEED2Ev.exit

_ZNSt7__cxx1112basic_stringIcSt11char_traitsIcESaIcEED2Ev.exit: ; preds = %_ZNKSt7__cxx1112basic_stringIcSt11char_traitsIcESaIcEE11_M_is_localEv.exit.thread.i.i, %_ZNKSt7__cxx1112basic_stringIcSt11char_traitsIcESaIcEE11_M_is_localEv.exit.i.i
  call void @llvm.lifetime.end.p0(i64 32, ptr nonnull %5) #29
  call void @llvm.lifetime.end.p0(i64 24, ptr nonnull %4) #29
  resume { ptr, i32 } %.pn

36:                                               ; preds = %21
  unreachable
}